; Function Attrs: mustprogress ssp uwtable
define void @_ZN6open3d2io3rpc11ZMQReceiver12GetLastErrorEv(ptr dead_on_unwind noalias writable sret(%"class.std::runtime_error") align 8 %0, ptr noundef nonnull align 8 dereferenceable(160) %1) local_unnamed_addr #1 align 2 personality ptr @__gxx_personality_v0 {
  %3 = alloca %"class.std::runtime_error", align 8
  %4 = getelementptr inbounds nuw i8, ptr %1, i64 80
  %5 = tail call noundef i32 @pthread_mutex_lock(ptr noundef nonnull align 8 dereferenceable(40) %4) #33
  %.not.i.i = icmp eq i32 %5, 0
  br i1 %.not.i.i, label %_ZNSt10lock_guardISt5mutexEC2ERS0_.exit, label %6

6:                                                ; preds = %2
  tail call void @_ZSt20__throw_system_errori(i32 noundef %5) #36
  unreachable

_ZNSt10lock_guardISt5mutexEC2ERS0_.exit:          ; preds = %2
  %7 = getelementptr inbounds nuw i8, ptr %1, i64 124
  store atomic i32 0, ptr %7 seq_cst, align 4
  %8 = getelementptr inbounds nuw i8, ptr %1, i64 128
  tail call void @_ZNSt13runtime_errorC1ERKS_(ptr noundef nonnull align 8 dereferenceable(16) %0, ptr noundef nonnull align 8 dereferenceable(16) %8) #33
  call void @llvm.lifetime.start.p0(i64 16, ptr nonnull %3) #33
  invoke void @_ZNSt13runtime_errorC1EPKc(ptr noundef nonnull align 8 dereferenceable(16) %3, ptr noundef nonnull @.str)
          to label %9 unwind label %12

9:                                                ; preds = %_ZNSt10lock_guardISt5mutexEC2ERS0_.exit
  %10 = call noundef nonnull align 8 dereferenceable(16) ptr @_ZNSt13runtime_erroraSEOS_(ptr noundef nonnull align 8 dereferenceable(16) %8, ptr noundef nonnull align 8 dereferenceable(16) %3) #33
  call void @_ZNSt13runtime_errorD1Ev(ptr noundef nonnull align 8 dereferenceable(16) %3) #33
  call void @llvm.lifetime.end.p0(i64 16, ptr nonnull %3) #33
  %11 = call noundef i32 @pthread_mutex_unlock(ptr noundef nonnull align 8 dereferenceable(40) %4) #33
  ret void

12:                                               ; preds = %_ZNSt10lock_guardISt5mutexEC2ERS0_.exit
  %13 = landingpad { ptr, i32 }
          cleanup
  call void @llvm.lifetime.end.p0(i64 16, ptr nonnull %3) #33
  call void @_ZNSt13runtime_errorD1Ev(ptr noundef nonnull align 8 dereferenceable(16) %0) #33
  %14 = call noundef i32 @pthread_mutex_unlock(ptr noundef nonnull align 8 dereferenceable(40) %4) #33
  resume { ptr, i32 } %13
}